(dp0
S'METTS MARK'
p1
(dp2
S'to_messages'
p3
I807
sS'deferral_payments'
p4
I0
sS'expenses'
p5
I94299
sS'poi'
p6
I00
sS'deferred_income'
p7
I0
sS'email_address'
p8
S'mark.metts@enron.com'
p9
sS'long_term_incentive'
p10
I0
sS'fraction_from_poi'
p11
F0.04708798017348203
sS'restricted_stock_deferred'
p12
I0
sS'shared_receipt_with_poi'
p13
I702
sS'loan_advances'
p14
I0
sS'from_messages'
p15
I29
sS'bonus_to_salary'
p16
F1.6402943781644013
sS'director_fees'
p17
I0
sS'bonus'
p18
I600000
sS'total_stock_value'
p19
I585062
sS'from_poi_to_this_person'
p20
I38
sS'from_this_person_to_poi'
p21
I1
sS'restricted_stock'
p22
I585062
sS'salary'
p23
I365788
sS'total_payments'
p24
I1061827
sS'fraction_to_poi'
p25
F0.034482758620689655
sS'exercised_stock_options'
p26
I0
sS'other'
p27
I1740
ssS'BAXTER JOHN C'
p28
(dp29
g3
I0
sg4
I1295738
sg5
I11200
sg6
I00
sg7
I-1386055
sg8
S''
p30
sg10
I1586055
sg11
F0.0
sg12
I0
sg13
I0
sg14
I0
sg15
I0
sg16
F4.492665723206865
sg17
I0
sg18
I1200000
sg19
I10623258
sg20
I0
sg21
I0
sg22
I3942714
sg23
I267102
sg24
I5634343
sg25
F0.0
sg26
I6680544
sg27
I2660303
ssS'ELLIOTT STEVEN'
p31
(dp32
g3
I0
sg4
I0
sg5
I78552
sg6
I00
sg7
I-400729
sg8
S'steven.elliott@enron.com'
p33
sg10
I0
sg11
F0.0
sg12
I0
sg13
I0
sg14
I0
sg15
I0
sg16
F2.047490069673162
sg17
I0
sg18
I350000
sg19
I6678735
sg20
I0
sg21
I0
sg22
I1788391
sg23
I170941
sg24
I211725
sg25
F0.0
sg26
I4890344
sg27
I12961
ssS'CORDES WILLIAM R'
p34
(dp35
g3
I764
sg4
I0
sg5
I0
sg6
I00
sg7
I0
sg8
S'bill.cordes@enron.com'
p36
sg10
I0
sg11
F0.013089005235602094
sg12
I0
sg13
I58
sg14
I0
sg15
I12
sg16
F0.0
sg17
I0
sg18
I0
sg19
I1038185
sg20
I10
sg21
I0
sg22
I386335
sg23
I0
sg24
I0
sg25
F0.0
sg26
I651850
sg27
I0
ssS'HANNON KEVIN P'
p37
(dp38
g3
I1045
sg4
I0
sg5
I34039
sg6
I01
sg7
I-3117011
sg8
S'kevin.hannon@enron.com'
p39
sg10
I1617011
sg11
F0.03062200956937799
sg12
I0
sg13
I1035
sg14
I0
sg15
I32
sg16
F6.165405498719651
sg17
I0
sg18
I1500000
sg19
I6391065
sg20
I32
sg21
I21
sg22
I853064
sg23
I243293
sg24
I288682
sg25
F0.65625
sg26
I5538001
sg27
I11350
ssS'MORDAUNT KRISTINA M'
p40
(dp41
g3
I0
sg4
I0
sg5
I35018
sg6
I00
sg7
I0
sg8
S'kristina.mordaunt@enron.com'
p42
sg10
I0
sg11
F0.0
sg12
I0
sg13
I0
sg14
I0
sg15
I0
sg16
F1.2168046335920448
sg17
I0
sg18
I325000
sg19
I208510
sg20
I0
sg21
I0
sg22
I208510
sg23
I267093
sg24
I628522
sg25
F0.0
sg26
I0
sg27
I1411
ssS'MEYER ROCKFORD G'
p43
(dp44
g3
I232
sg4
I1848227
sg5
I0
sg6
I00
sg7
I0
sg8
S'rockford.meyer@enron.com'
p45
sg10
I0
sg11
F0.0
sg12
I0
sg13
I22
sg14
I0
sg15
I28
sg16
F0.0
sg17
I0
sg18
I0
sg19
I955873
sg20
I0
sg21
I0
sg22
I462384
sg23
I0
sg24
I1848227
sg25
F0.0
sg26
I493489
sg27
I0
ssS'MCMAHON JEFFREY'
p46
(dp47
g3
I2355
sg4
I0
sg5
I137108
sg6
I00
sg7
I0
sg8
S'jeffrey.mcmahon@enron.com'
p48
sg10
I694862
sg11
F0.024628450106157114
sg12
I0
sg13
I2228
sg14
I0
sg15
I48
sg16
F7.018528916339135
sg17
I0
sg18
I2600000
sg19
I1662855
sg20
I58
sg21
I26
sg22
I558801
sg23
I370448
sg24
I4099771
sg25
F0.5416666666666666
sg26
I1104054
sg27
I297353
ssS'HORTON STANLEY C'
p49
(dp50
g3
I2350
sg4
I3131860
sg5
I0
sg6
I00
sg7
I0
sg8
S'stanley.horton@enron.com'
p51
sg10
I0
sg11
F0.01872340425531915
sg12
I0
sg13
I1074
sg14
I0
sg15
I1073
sg16
F0.0
sg17
I0
sg18
I0
sg19
I7256648
sg20
I44
sg21
I15
sg22
I2046079
sg23
I0
sg24
I3131860
sg25
F0.013979496738117428
sg26
I5210569
sg27
I0
ssS'PIPER GREGORY F'
p52
(dp53
g3
I1238
sg4
I1130036
sg5
I43057
sg6
I00
sg7
I-33333
sg8
S'greg.piper@enron.com'
p54
sg10
I0
sg11
F0.049273021001615507
sg12
I-409554
sg13
I742
sg14
I0
sg15
I222
sg16
F2.0295193590777862
sg17
I0
sg18
I400000
sg19
I880290
sg20
I61
sg21
I48
sg22
I409554
sg23
I197091
sg24
I1737629
sg25
F0.21621621621621623
sg26
I880290
sg27
I778
ssS'HUMPHREY GENE E'
p55
(dp56
g3
I128
sg4
I2964506
sg5
I4994
sg6
I00
sg7
I0
sg8
S'gene.humphrey@enron.com'
p57
sg10
I0
sg11
F0.078125
sg12
I0
sg13
I119
sg14
I0
sg15
I17
sg16
F0.0
sg17
I0
sg18
I0
sg19
I2282768
sg20
I10
sg21
I17
sg22
I0
sg23
I130724
sg24
I3100224
sg25
F1.0
sg26
I2282768
sg27
I0
ssS'UMANOFF ADAM S'
p58
(dp59
g3
I111
sg4
I0
sg5
I53122
sg6
I00
sg7
I0
sg8
S'adam.umanoff@enron.com'
p60
sg10
I0
sg11
F0.10810810810810811
sg12
I0
sg13
I41
sg14
I0
sg15
I18
sg16
F2.7331256562100426
sg17
I0
sg18
I788750
sg19
I0
sg20
I12
sg21
I0
sg22
I0
sg23
I288589
sg24
I1130461
sg25
F0.0
sg26
I0
sg27
I0
ssS'BLACHMAN JEREMY M'
p61
(dp62
g3
I2475
sg4
I0
sg5
I84208
sg6
I00
sg7
I0
sg8
S'jeremy.blachman@enron.com'
p63
sg10
I831809
sg11
F0.010101010101010102
sg12
I0
sg13
I2326
sg14
I0
sg15
I14
sg16
F3.419890080709406
sg17
I0
sg18
I850000
sg19
I954354
sg20
I25
sg21
I2
sg22
I189041
sg23
I248546
sg24
I2014835
sg25
F0.14285714285714285
sg26
I765313
sg27
I272
ssS'SUNDE MARTIN'
p64
(dp65
g3
I2647
sg4
I0
sg5
I0
sg6
I00
sg7
I0
sg8
S'marty.sunde@enron.com'
p66
sg10
I476451
sg11
F0.013978088401964487
sg12
I0
sg13
I2565
sg14
I0
sg15
I38
sg16
F2.7185944090164127
sg17
I0
sg18
I700000
sg19
I698920
sg20
I37
sg21
I13
sg22
I698920
sg23
I257486
sg24
I1545059
sg25
F0.34210526315789475
sg26
I0
sg27
I111122
ssS'GIBBS DANA R'
p67
(dp68
g3
I169
sg4
I504610
sg5
I0
sg6
I00
sg7
I0
sg8
S'dana.gibbs@enron.com'
p69
sg10
I461912
sg11
F0.0
sg12
I0
sg13
I23
sg14
I0
sg15
I12
sg16
F0.0
sg17
I0
sg18
I0
sg19
I2218275
sg20
I0
sg21
I0
sg22
I0
sg23
I0
sg24
I966522
sg25
F0.0
sg26
I2218275
sg27
I0
ssS'LOWRY CHARLES P'
p70
(dp71
g3
I0
sg4
I0
sg5
I0
sg6
I00
sg7
I0
sg8
g30
sg10
I0
sg11
F0.0
sg12
I-153686
sg13
I0
sg14
I0
sg15
I0
sg16
F0.0
sg17
I0
sg18
I0
sg19
I372205
sg20
I0
sg21
I0
sg22
I153686
sg23
I0
sg24
I0
sg25
F0.0
sg26
I372205
sg27
I0
ssS'COLWELL WESLEY'
p72
(dp73
g3
I1758
sg4
I27610
sg5
I16514
sg6
I01
sg7
I-144062
sg8
S'wes.colwell@enron.com'
p74
sg10
I0
sg11
F0.13651877133105803
sg12
I0
sg13
I1132
sg14
I0
sg15
I40
sg16
F4.158839960906905
sg17
I0
sg18
I1200000
sg19
I698242
sg20
I240
sg21
I11
sg22
I698242
sg23
I288542
sg24
I1490344
sg25
F0.275
sg26
I0
sg27
I101740
ssS'MULLER MARK S'
p75
(dp76
g3
I136
sg4
I842924
sg5
I0
sg6
I00
sg7
I-719000
sg8
S's..muller@enron.com'
p77
sg10
I1725545
sg11
F0.08823529411764706
sg12
I0
sg13
I114
sg14
I0
sg15
I16
sg16
F4.3710809285765375
sg17
I0
sg18
I1100000
sg19
I1416848
sg20
I12
sg21
I0
sg22
I360528
sg23
I251654
sg24
I3202070
sg25
F0.0
sg26
I1056320
sg27
I947
ssS'JACKSON CHARLENE R'
p78
(dp79
g3
I258
sg4
I0
sg5
I10181
sg6
I00
sg7
I0
sg8
S'charlene.jackson@enron.com'
p80
sg10
I0
sg11
F0.09689922480620156
sg12
I0
sg13
I117
sg14
I0
sg15
I56
sg16
F0.8663769502145149
sg17
I0
sg18
I250000
sg19
I725735
sg20
I25
sg21
I19
sg22
I540672
sg23
I288558
sg24
I551174
sg25
F0.3392857142857143
sg26
I185063
sg27
I2435
ssS'WESTFAHL RICHARD K'
p81
(dp82
g3
I0
sg4
I0
sg5
I51870
sg6
I00
sg7
I-10800
sg8
S'dick.westfahl@enron.com'
p83
sg10
I256191
sg11
F0.0
sg12
I0
sg13
I0
sg14
I0
sg15
I0
sg16
F0.0
sg17
I0
sg18
I0
sg19
I384930
sg20
I0
sg21
I0
sg22
I384930
sg23
I63744
sg24
I762135
sg25
F0.0
sg26
I0
sg27
I401130
ssS'WALTERS GARETH W'
p84
(dp85
g3
I0
sg4
I53625
sg5
I33785
sg6
I00
sg7
I0
sg8
g30
sg10
I0
sg11
F0.0
sg12
I0
sg13
I0
sg14
I0
sg15
I0
sg16
F0.0
sg17
I0
sg18
I0
sg19
I1030329
sg20
I0
sg21
I0
sg22
I0
sg23
I0
sg24
I87410
sg25
F0.0
sg26
I1030329
sg27
I0
ssS'WALLS JR ROBERT H'
p86
(dp87
g3
I671
sg4
I0
sg5
I50936
sg6
I00
sg7
I0
sg8
S'rob.walls@enron.com'
p88
sg10
I540751
sg11
F0.02533532041728763
sg12
I0
sg13
I215
sg14
I0
sg15
I146
sg16
F2.380345626184922
sg17
I0
sg18
I850000
sg19
I5898997
sg20
I17
sg21
I0
sg22
I1552453
sg23
I357091
sg24
I1798780
sg25
F0.0
sg26
I4346544
sg27
I2
ssS'KITCHEN LOUISE'
p89
(dp90
g3
I8305
sg4
I0
sg5
I5774
sg6
I00
sg7
I0
sg8
S'louise.kitchen@enron.com'
p91
sg10
I0
sg11
F0.030222757375075255
sg12
I0
sg13
I3669
sg14
I0
sg15
I1728
sg16
F11.420487617981005
sg17
I0
sg18
I3100000
sg19
I547143
sg20
I251
sg21
I194
sg22
I466101
sg23
I271442
sg24
I3471141
sg25
F0.11226851851851852
sg26
I81042
sg27
I93925
ssS'CHAN RONNIE'
p92
(dp93
g3
I0
sg4
I0
sg5
I0
sg6
I00
sg7
I-98784
sg8
g30
sg10
I0
sg11
F0.0
sg12
I-32460
sg13
I0
sg14
I0
sg15
I0
sg16
F0.0
sg17
I98784
sg18
I0
sg19
I0
sg20
I0
sg21
I0
sg22
I32460
sg23
I0
sg24
I0
sg25
F0.0
sg26
I0
sg27
I0
ssS'BELFER ROBERT'
p94
(dp95
g3
I0
sg4
I-102500
sg5
I0
sg6
I00
sg7
I0
sg8
g30
sg10
I0
sg11
F0.0
sg12
I44093
sg13
I0
sg14
I0
sg15
I0
sg16
F0.0
sg17
I3285
sg18
I0
sg19
I-44093
sg20
I0
sg21
I0
sg22
I0
sg23
I0
sg24
I102500
sg25
F0.0
sg26
I3285
sg27
I0
ssS'SHANKMAN JEFFREY A'
p96
(dp97
g3
I3221
sg4
I0
sg5
I178979
sg6
I00
sg7
I0
sg8
S'jeffrey.shankman@enron.com'
p98
sg10
I554422
sg11
F0.029183483390251473
sg12
I0
sg13
I1730
sg14
I0
sg15
I2681
sg16
F6.576567689322943
sg17
I0
sg18
I2000000
sg19
I2072035
sg20
I94
sg21
I83
sg22
I630137
sg23
I304110
sg24
I3038702
sg25
F0.030958597538232
sg26
I1441898
sg27
I1191
ssS'WODRASKA JOHN'
p99
(dp100
g3
I0
sg4
I0
sg5
I0
sg6
I00
sg7
I0
sg8
S'john.wodraska@enron.com'
p101
sg10
I0
sg11
F0.0
sg12
I0
sg13
I0
sg14
I0
sg15
I0
sg16
F0.0
sg17
I0
sg18
I0
sg19
I0
sg20
I0
sg21
I0
sg22
I0
sg23
I0
sg24
I189583
sg25
F0.0
sg26
I0
sg27
I189583
ssS'BERGSIEKER RICHARD P'
p102
(dp103
g3
I383
sg4
I0
sg5
I59175
sg6
I00
sg7
I-485813
sg8
S'rick.bergsieker@enron.com'
p104
sg10
I180250
sg11
F0.010443864229765013
sg12
I0
sg13
I233
sg14
I0
sg15
I59
sg16
F1.3303391832781686
sg17
I0
sg18
I250000
sg19
I659249
sg20
I4
sg21
I0
sg22
I659249
sg23
I187922
sg24
I618850
sg25
F0.0
sg26
I0
sg27
I427316
ssS'URQUHART JOHN A'
p105
(dp106
g3
I0
sg4
I0
sg5
I228656
sg6
I00
sg7
I-36666
sg8
g30
sg10
I0
sg11
F0.0
sg12
I0
sg13
I0
sg14
I0
sg15
I0
sg16
F0.0
sg17
I36666
sg18
I0
sg19
I0
sg20
I0
sg21
I0
sg22
I0
sg23
I0
sg24
I228656
sg25
F0.0
sg26
I0
sg27
I0
ssS'BIBI PHILIPPE A'
p107
(dp108
g3
I1607
sg4
I0
sg5
I38559
sg6
I00
sg7
I0
sg8
S'philippe.bibi@enron.com'
p109
sg10
I369721
sg11
F0.01431238332296204
sg12
I0
sg13
I1336
sg14
I0
sg15
I40
sg16
F4.681100058513751
sg17
I0
sg18
I1000000
sg19
I1843816
sg20
I23
sg21
I8
sg22
I378082
sg23
I213625
sg24
I2047593
sg25
F0.2
sg26
I1465734
sg27
I425688
ssS'RIEKER PAULA H'
p110
(dp111
g3
I1328
sg4
I214678
sg5
I33271
sg6
I01
sg7
I-100000
sg8
S'paula.rieker@enron.com'
p112
sg10
I0
sg11
F0.02635542168674699
sg12
I0
sg13
I1258
sg14
I0
sg15
I82
sg16
F2.8089774920646384
sg17
I0
sg18
I700000
sg19
I1918887
sg20
I35
sg21
I48
sg22
I283649
sg23
I249201
sg24
I1099100
sg25
F0.5853658536585366
sg26
I1635238
sg27
I1950
ssS'WHALEY DAVID A'
p113
(dp114
g3
I0
sg4
I0
sg5
I0
sg6
I00
sg7
I0
sg8
g30
sg10
I0
sg11
F0.0
sg12
I0
sg13
I0
sg14
I0
sg15
I0
sg16
F0.0
sg17
I0
sg18
I0
sg19
I98718
sg20
I0
sg21
I0
sg22
I0
sg23
I0
sg24
I0
sg25
F0.0
sg26
I98718
sg27
I0
ssS'BECK SALLY W'
p115
(dp116
g3
I7315
sg4
I0
sg5
I37172
sg6
I00
sg7
I0
sg8
S'sally.beck@enron.com'
p117
sg10
I0
sg11
F0.01968557758031442
sg12
I0
sg13
I2639
sg14
I0
sg15
I4343
sg16
F3.025980201443825
sg17
I0
sg18
I700000
sg19
I126027
sg20
I144
sg21
I386
sg22
I126027
sg23
I231330
sg24
I969068
sg25
F0.08887865530739121
sg26
I0
sg27
I566
ssS'HAUG DAVID L'
p118
(dp119
g3
I573
sg4
I0
sg5
I475
sg6
I00
sg7
I0
sg8
S'david.haug@enron.com'
p120
sg10
I0
sg11
F0.006980802792321117
sg12
I0
sg13
I471
sg14
I0
sg15
I19
sg16
F0.0
sg17
I0
sg18
I0
sg19
I2217299
sg20
I4
sg21
I7
sg22
I2217299
sg23
I0
sg24
I475
sg25
F0.3684210526315789
sg26
I0
sg27
I0
ssS'ECHOLS JOHN B'
p121
(dp122
g3
I0
sg4
I0
sg5
I21530
sg6
I00
sg7
I0
sg8
S'john.echols@enron.com'
p123
sg10
I2234774
sg11
F0.0
sg12
I0
sg13
I0
sg14
I0
sg15
I0
sg16
F1.0974237976350518
sg17
I0
sg18
I200000
sg19
I1008941
sg20
I0
sg21
I0
sg22
I407503
sg23
I182245
sg24
I2692324
sg25
F0.0
sg26
I601438
sg27
I53775
ssS'MENDELSOHN JOHN'
p124
(dp125
g3
I0
sg4
I0
sg5
I148
sg6
I00
sg7
I-103750
sg8
g30
sg10
I0
sg11
F0.0
sg12
I0
sg13
I0
sg14
I0
sg15
I0
sg16
F0.0
sg17
I103750
sg18
I0
sg19
I0
sg20
I0
sg21
I0
sg22
I0
sg23
I0
sg24
I148
sg25
F0.0
sg26
I0
sg27
I0
ssS'HICKERSON GARY J'
p126
(dp127
g3
I1320
sg4
I0
sg5
I98849
sg6
I00
sg7
I0
sg8
S'gary.hickerson@enron.com'
p128
sg10
I69223
sg11
F0.030303030303030304
sg12
I0
sg13
I900
sg14
I0
sg15
I27
sg16
F8.02689481934765
sg17
I0
sg18
I1700000
sg19
I441096
sg20
I40
sg21
I1
sg22
I441096
sg23
I211788
sg24
I2081796
sg25
F0.037037037037037035
sg26
I0
sg27
I1936
ssS'CLINE KENNETH W'
p129
(dp130
g3
I0
sg4
I0
sg5
I0
sg6
I00
sg7
I0
sg8
g30
sg10
I0
sg11
F0.0
sg12
I-472568
sg13
I0
sg14
I0
sg15
I0
sg16
F0.0
sg17
I0
sg18
I0
sg19
I189518
sg20
I0
sg21
I0
sg22
I662086
sg23
I0
sg24
I0
sg25
F0.0
sg26
I0
sg27
I0
ssS'LEWIS RICHARD'
p131
(dp132
g3
I952
sg4
I0
sg5
I0
sg6
I00
sg7
I0
sg8
S'richard.lewis@enron.com'
p133
sg10
I0
sg11
F0.01050420168067227
sg12
I0
sg13
I739
sg14
I0
sg15
I26
sg16
F0.0
sg17
I0
sg18
I0
sg19
I850477
sg20
I10
sg21
I0
sg22
I0
sg23
I0
sg24
I0
sg25
F0.0
sg26
I850477
sg27
I0
ssS'HAYES ROBERT E'
p134
(dp135
g3
I504
sg4
I7961
sg5
I0
sg6
I00
sg7
I0
sg8
S'robert.hayes@enron.com'
p136
sg10
I0
sg11
F0.031746031746031744
sg12
I0
sg13
I50
sg14
I0
sg15
I12
sg16
F0.0
sg17
I0
sg18
I0
sg19
I151418
sg20
I16
sg21
I0
sg22
I151418
sg23
I0
sg24
I7961
sg25
F0.0
sg26
I0
sg27
I0
ssS'MCCARTY DANNY J'
p137
(dp138
g3
I1433
sg4
I0
sg5
I0
sg6
I00
sg7
I0
sg8
S'danny.mccarty@enron.com'
p139
sg10
I0
sg11
F0.017445917655268667
sg12
I0
sg13
I508
sg14
I0
sg15
I215
sg16
F0.0
sg17
I0
sg18
I0
sg19
I758931
sg20
I25
sg21
I2
sg22
I94556
sg23
I0
sg24
I0
sg25
F0.009302325581395349
sg26
I664375
sg27
I0
ssS'KOPPER MICHAEL J'
p140
(dp141
g3
I0
sg4
I0
sg5
I118134
sg6
I01
sg7
I0
sg8
S'michael.kopper@enron.com'
p142
sg10
I602671
sg11
F0.0
sg12
I0
sg13
I0
sg14
I0
sg15
I0
sg16
F3.5665723011078665
sg17
I0
sg18
I800000
sg19
I985032
sg20
I0
sg21
I0
sg22
I985032
sg23
I224305
sg24
I2652612
sg25
F0.0
sg26
I0
sg27
I907502
ssS'LEFF DANIEL P'
p143
(dp144
g3
I2822
sg4
I0
sg5
I0
sg6
I00
sg7
I0
sg8
S'dan.leff@enron.com'
p145
sg10
I1387399
sg11
F0.02374202693125443
sg12
I0
sg13
I2672
sg14
I0
sg15
I63
sg16
F3.653021414011529
sg17
I0
sg18
I1000000
sg19
I360528
sg20
I67
sg21
I14
sg22
I360528
sg23
I273746
sg24
I2664228
sg25
F0.2222222222222222
sg26
I0
sg27
I3083
ssS'LAVORATO JOHN J'
p146
(dp147
g3
I7259
sg4
I0
sg5
I49537
sg6
I00
sg7
I0
sg8
S'john.lavorato@enron.com'
p148
sg10
I2035380
sg11
F0.07273729163796666
sg12
I0
sg13
I3962
sg14
I0
sg15
I2585
sg16
F23.57878852184575
sg17
I0
sg18
I8000000
sg19
I5167144
sg20
I528
sg21
I411
sg22
I1008149
sg23
I339288
sg24
I10425757
sg25
F0.15899419729206962
sg26
I4158995
sg27
I1552
ssS'BERBERIAN DAVID'
p149
(dp150
g3
I0
sg4
I0
sg5
I11892
sg6
I00
sg7
I0
sg8
S'david.berberian@enron.com'
p151
sg10
I0
sg11
F0.0
sg12
I0
sg13
I0
sg14
I0
sg15
I0
sg16
F0.0
sg17
I0
sg18
I0
sg19
I2493616
sg20
I0
sg21
I0
sg22
I869220
sg23
I216582
sg24
I228474
sg25
F0.0
sg26
I1624396
sg27
I0
ssS'DETMERING TIMOTHY J'
p152
(dp153
g3
I0
sg4
I875307
sg5
I52255
sg6
I00
sg7
I-775241
sg8
S'timothy.detmering@enron.com'
p154
sg10
I415657
sg11
F0.0
sg12
I-315068
sg13
I0
sg14
I0
sg15
I0
sg16
F2.019002375296912
sg17
I0
sg18
I425000
sg19
I2027865
sg20
I0
sg21
I0
sg22
I315068
sg23
I210500
sg24
I1204583
sg25
F0.0
sg26
I2027865
sg27
I1105
ssS'WAKEHAM JOHN'
p155
(dp156
g3
I0
sg4
I0
sg5
I103773
sg6
I00
sg7
I0
sg8
g30
sg10
I0
sg11
F0.0
sg12
I0
sg13
I0
sg14
I0
sg15
I0
sg16
F0.0
sg17
I109298
sg18
I0
sg19
I0
sg20
I0
sg21
I0
sg22
I0
sg23
I0
sg24
I213071
sg25
F0.0
sg26
I0
sg27
I0
ssS'POWERS WILLIAM'
p157
(dp158
g3
I653
sg4
I0
sg5
I0
sg6
I00
sg7
I-17500
sg8
S'ken.powers@enron.com'
p159
sg10
I0
sg11
F0.0
sg12
I0
sg13
I12
sg14
I0
sg15
I26
sg16
F0.0
sg17
I17500
sg18
I0
sg19
I0
sg20
I0
sg21
I0
sg22
I0
sg23
I0
sg24
I0
sg25
F0.0
sg26
I0
sg27
I0
ssS'GOLD JOSEPH'
p160
(dp161
g3
I0
sg4
I0
sg5
I0
sg6
I00
sg7
I0
sg8
S'joe.gold@enron.com'
p162
sg10
I304805
sg11
F0.0
sg12
I0
sg13
I0
sg14
I0
sg15
I0
sg16
F2.748460861917326
sg17
I0
sg18
I750000
sg19
I877611
sg20
I0
sg21
I0
sg22
I441096
sg23
I272880
sg24
I2146973
sg25
F0.0
sg26
I436515
sg27
I819288
ssS'BANNANTINE JAMES M'
p163
(dp164
g3
I566
sg4
I0
sg5
I56301
sg6
I00
sg7
I-5104
sg8
S'james.bannantine@enron.com'
p165
sg10
I0
sg11
F0.06890459363957598
sg12
I-560222
sg13
I465
sg14
I0
sg15
I29
sg16
F0.0
sg17
I0
sg18
I0
sg19
I5243487
sg20
I39
sg21
I0
sg22
I1757552
sg23
I477
sg24
I916197
sg25
F0.0
sg26
I4046157
sg27
I864523
ssS'DUNCAN JOHN H'
p166
(dp167
g3
I0
sg4
I0
sg5
I0
sg6
I00
sg7
I-25000
sg8
g30
sg10
I0
sg11
F0.0
sg12
I0
sg13
I0
sg14
I0
sg15
I0
sg16
F0.0
sg17
I102492
sg18
I0
sg19
I371750
sg20
I0
sg21
I0
sg22
I0
sg23
I0
sg24
I77492
sg25
F0.0
sg26
I371750
sg27
I0
ssS'SHAPIRO RICHARD S'
p168
(dp169
g3
I15149
sg4
I0
sg5
I137767
sg6
I00
sg7
I0
sg8
S'richard.shapiro@enron.com'
p170
sg10
I0
sg11
F0.0048848108786058485
sg12
I0
sg13
I4527
sg14
I0
sg15
I1215
sg16
F2.4156743819590005
sg17
I0
sg18
I650000
sg19
I987001
sg20
I74
sg21
I65
sg22
I379164
sg23
I269076
sg24
I1057548
sg25
F0.053497942386831275
sg26
I607837
sg27
I705
ssS'SHERRIFF JOHN R'
p171
(dp172
g3
I3187
sg4
I0
sg5
I0
sg6
I00
sg7
I0
sg8
S'john.sherriff@enron.com'
p173
sg10
I554422
sg11
F0.008785691873235017
sg12
I0
sg13
I2103
sg14
I0
sg15
I92
sg16
F3.4982974952189934
sg17
I0
sg18
I1500000
sg19
I3128982
sg20
I28
sg21
I23
sg22
I1293424
sg23
I428780
sg24
I4335388
sg25
F0.25
sg26
I1835558
sg27
I1852186
ssS'SHELBY REX'
p174
(dp175
g3
I225
sg4
I0
sg5
I22884
sg6
I01
sg7
I-4167
sg8
S'rex.shelby@enron.com'
p176
sg10
I0
sg11
F0.057777777777777775
sg12
I0
sg13
I91
sg14
I0
sg15
I39
sg16
F0.9440909348388437
sg17
I0
sg18
I200000
sg19
I2493616
sg20
I13
sg21
I14
sg22
I869220
sg23
I211844
sg24
I2003885
sg25
F0.358974358974359
sg26
I1624396
sg27
I1573324
ssS'LEMAISTRE CHARLES'
p177
(dp178
g3
I0
sg4
I0
sg5
I0
sg6
I00
sg7
I-25000
sg8
g30
sg10
I0
sg11
F0.0
sg12
I0
sg13
I0
sg14
I0
sg15
I0
sg16
F0.0
sg17
I112492
sg18
I0
sg19
I412878
sg20
I0
sg21
I0
sg22
I0
sg23
I0
sg24
I87492
sg25
F0.0
sg26
I412878
sg27
I0
ssS'DEFFNER JOSEPH M'
p179
(dp180
g3
I714
sg4
I0
sg5
I41626
sg6
I00
sg7
I0
sg8
S'joseph.deffner@enron.com'
p181
sg10
I335349
sg11
F0.16106442577030813
sg12
I0
sg13
I552
sg14
I0
sg15
I74
sg16
F2.910911551952494
sg17
I0
sg18
I600000
sg19
I159211
sg20
I115
sg21
I4
sg22
I141833
sg23
I206121
sg24
I1208649
sg25
F0.05405405405405406
sg26
I17378
sg27
I25553
ssS'KISHKILL JOSEPH G'
p182
(dp183
g3
I0
sg4
I0
sg5
I116335
sg6
I00
sg7
I-51042
sg8
S'joe.kishkill@enron.com'
p184
sg10
I0
sg11
F0.0
sg12
I0
sg13
I0
sg14
I0
sg15
I0
sg16
F0.0
sg17
I0
sg18
I0
sg19
I1034346
sg20
I0
sg21
I0
sg22
I1034346
sg23
I174246
sg24
I704896
sg25
F0.0
sg26
I0
sg27
I465357
ssS'WHALLEY LAWRENCE G'
p185
(dp186
g3
I6019
sg4
I0
sg5
I57838
sg6
I00
sg7
I0
sg8
S'greg.whalley@enron.com'
p187
sg10
I808346
sg11
F0.03090214321315833
sg12
I0
sg13
I3920
sg14
I0
sg15
I556
sg16
F5.878157550297435
sg17
I0
sg18
I3000000
sg19
I6079137
sg20
I186
sg21
I24
sg22
I2796177
sg23
I510364
sg24
I4677574
sg25
F0.04316546762589928
sg26
I3282960
sg27
I301026
ssS'MCCONNELL MICHAEL S'
p188
(dp189
g3
I3329
sg4
I0
sg5
I81364
sg6
I00
sg7
I0
sg8
S'mike.mcconnell@enron.com'
p190
sg10
I554422
sg11
F0.02763592670471613
sg12
I0
sg13
I2189
sg14
I0
sg15
I2742
sg16
F3.013384907872605
sg17
I0
sg18
I1100000
sg19
I3101279
sg20
I92
sg21
I194
sg22
I1478269
sg23
I365038
sg24
I2101364
sg25
F0.07075127644055434
sg26
I1623010
sg27
I540
ssS'PIRO JIM'
p191
(dp192
g3
I58
sg4
I0
sg5
I0
sg6
I00
sg7
I0
sg8
S'jim.piro@enron.com'
p193
sg10
I0
sg11
F0.0
sg12
I0
sg13
I3
sg14
I0
sg15
I16
sg16
F0.0
sg17
I0
sg18
I0
sg19
I47304
sg20
I0
sg21
I1
sg22
I47304
sg23
I0
sg24
I0
sg25
F0.0625
sg26
I0
sg27
I0
ssS'DELAINEY DAVID W'
p194
(dp195
g3
I3093
sg4
I0
sg5
I86174
sg6
I01
sg7
I0
sg8
S'david.delainey@enron.com'
p196
sg10
I1294981
sg11
F0.02133850630455868
sg12
I0
sg13
I2097
sg14
I0
sg15
I3069
sg16
F8.215509238340138
sg17
I0
sg18
I3000000
sg19
I3614261
sg20
I66
sg21
I609
sg22
I1323148
sg23
I365163
sg24
I4747979
sg25
F0.198435972629521
sg26
I2291113
sg27
I1661
ssS'SULLIVAN-SHAKLOVITZ COLLEEN'
p197
(dp198
g3
I0
sg4
I181993
sg5
I0
sg6
I00
sg7
I0
sg8
g30
sg10
I554422
sg11
F0.0
sg12
I0
sg13
I0
sg14
I0
sg15
I0
sg16
F0.6143298582741017
sg17
I0
sg18
I100000
sg19
I1362375
sg20
I0
sg21
I0
sg22
I0
sg23
I162779
sg24
I999356
sg25
F0.0
sg26
I1362375
sg27
I162
ssS'WROBEL BRUCE'
p199
(dp200
g3
I0
sg4
I0
sg5
I0
sg6
I00
sg7
I0
sg8
g30
sg10
I0
sg11
F0.0
sg12
I0
sg13
I0
sg14
I0
sg15
I0
sg16
F0.0
sg17
I0
sg18
I0
sg19
I139130
sg20
I0
sg21
I0
sg22
I0
sg23
I0
sg24
I0
sg25
F0.0
sg26
I139130
sg27
I0
ssS'LINDHOLM TOD A'
p201
(dp202
g3
I0
sg4
I204075
sg5
I57727
sg6
I00
sg7
I0
sg8
S'tod.lindholm@enron.com'
p203
sg10
I175000
sg11
F0.0
sg12
I0
sg13
I0
sg14
I0
sg15
I0
sg16
F0.8458197473536415
sg17
I0
sg18
I200000
sg19
I3064208
sg20
I0
sg21
I0
sg22
I514847
sg23
I236457
sg24
I875889
sg25
F0.0
sg26
I2549361
sg27
I2630
ssS'MEYER JEROME J'
p204
(dp205
g3
I0
sg4
I0
sg5
I2151
sg6
I00
sg7
I-38346
sg8
g30
sg10
I0
sg11
F0.0
sg12
I0
sg13
I0
sg14
I0
sg15
I0
sg16
F0.0
sg17
I38346
sg18
I0
sg19
I0
sg20
I0
sg21
I0
sg22
I0
sg23
I0
sg24
I2151
sg25
F0.0
sg26
I0
sg27
I0
ssS'LAY KENNETH L'
p206
(dp207
g3
I4273
sg4
I202911
sg5
I99832
sg6
I01
sg7
I-300000
sg8
S'kenneth.lay@enron.com'
p208
sg10
I3600000
sg11
F0.028785396676807865
sg12
I0
sg13
I2411
sg14
I81525000
sg15
I36
sg16
F6.527896031132468
sg17
I0
sg18
I7000000
sg19
I49110078
sg20
I123
sg21
I16
sg22
I14761694
sg23
I1072321
sg24
I103559793
sg25
F0.4444444444444444
sg26
I34348384
sg27
I10359729
ssS'BUTTS ROBERT H'
p209
(dp210
g3
I0
sg4
I0
sg5
I9410
sg6
I00
sg7
I-75000
sg8
S'bob.butts@enron.com'
p211
sg10
I175000
sg11
F0.0
sg12
I0
sg13
I0
sg14
I0
sg15
I0
sg16
F2.8678933602532926
sg17
I0
sg18
I750000
sg19
I417619
sg20
I0
sg21
I0
sg22
I417619
sg23
I261516
sg24
I1271582
sg25
F0.0
sg26
I0
sg27
I150656
ssS'OLSON CINDY K'
p212
(dp213
g3
I1184
sg4
I77716
sg5
I63791
sg6
I00
sg7
I0
sg8
S'cindy.olson@enron.com'
p214
sg10
I100000
sg11
F0.016891891891891893
sg12
I0
sg13
I856
sg14
I0
sg15
I52
sg16
F2.279094925823057
sg17
I0
sg18
I750000
sg19
I2606763
sg20
I20
sg21
I15
sg22
I969729
sg23
I329078
sg24
I1321557
sg25
F0.28846153846153844
sg26
I1637034
sg27
I972
ssS'MCDONALD REBECCA'
p215
(dp216
g3
I894
sg4
I0
sg5
I0
sg6
I00
sg7
I0
sg8
S'rebecca.mcdonald@enron.com'
p217
sg10
I0
sg11
F0.06040268456375839
sg12
I0
sg13
I720
sg14
I0
sg15
I13
sg16
F0.0
sg17
I0
sg18
I0
sg19
I1691366
sg20
I54
sg21
I1
sg22
I934065
sg23
I0
sg24
I0
sg25
F0.07692307692307693
sg26
I757301
sg27
I0
ssS'CUMBERLAND MICHAEL S'
p218
(dp219
g3
I0
sg4
I0
sg5
I22344
sg6
I00
sg7
I0
sg8
g30
sg10
I275000
sg11
F0.0
sg12
I0
sg13
I0
sg14
I0
sg15
I0
sg16
F1.7577163748857485
sg17
I0
sg18
I325000
sg19
I207940
sg20
I0
sg21
I0
sg22
I207940
sg23
I184899
sg24
I807956
sg25
F0.0
sg26
I0
sg27
I713
ssS'GAHN ROBERT S'
p220
(dp221
g3
I0
sg4
I73122
sg5
I50080
sg6
I00
sg7
I-1042
sg8
g30
sg10
I0
sg11
F0.0
sg12
I0
sg13
I0
sg14
I0
sg15
I0
sg16
F2.6554622724053165
sg17
I0
sg18
I509870
sg19
I318607
sg20
I0
sg21
I0
sg22
I235370
sg23
I192008
sg24
I900585
sg25
F0.0
sg26
I83237
sg27
I76547
ssS'MCCLELLAN GEORGE'
p222
(dp223
g3
I1744
sg4
I0
sg5
I228763
sg6
I00
sg7
I-125000
sg8
S'george.mcclellan@enron.com'
p224
sg10
I0
sg11
F0.02981651376146789
sg12
I0
sg13
I1469
sg14
I0
sg15
I49
sg16
F3.4166878627858153
sg17
I0
sg18
I900000
sg19
I947861
sg20
I52
sg21
I0
sg22
I441096
sg23
I263413
sg24
I1318763
sg25
F0.0
sg26
I506765
sg27
I51587
ssS'HERMANN ROBERT J'
p225
(dp226
g3
I0
sg4
I0
sg5
I48357
sg6
I00
sg7
I-280000
sg8
S'robert.hermann@enron.com'
p227
sg10
I150000
sg11
F0.0
sg12
I0
sg13
I0
sg14
I0
sg15
I0
sg16
F2.665011821231007
sg17
I0
sg18
I700000
sg19
I668132
sg20
I0
sg21
I0
sg22
I480632
sg23
I262663
sg24
I1297461
sg25
F0.0
sg26
I187500
sg27
I416441
ssS'SCRIMSHAW MATTHEW'
p228
(dp229
g3
I0
sg4
I0
sg5
I0
sg6
I00
sg7
I0
sg8
S'matthew.scrimshaw@enron.com'
p230
sg10
I0
sg11
F0.0
sg12
I0
sg13
I0
sg14
I0
sg15
I0
sg16
F0.0
sg17
I0
sg18
I0
sg19
I759557
sg20
I0
sg21
I0
sg22
I0
sg23
I0
sg24
I0
sg25
F0.0
sg26
I759557
sg27
I0
ssS'GATHMANN WILLIAM D'
p231
(dp232
g3
I0
sg4
I0
sg5
I0
sg6
I00
sg7
I0
sg8
g30
sg10
I0
sg11
F0.0
sg12
I-72419
sg13
I0
sg14
I0
sg15
I0
sg16
F0.0
sg17
I0
sg18
I0
sg19
I1945360
sg20
I0
sg21
I0
sg22
I264013
sg23
I0
sg24
I0
sg25
F0.0
sg26
I1753766
sg27
I0
ssS'HAEDICKE MARK E'
p233
(dp234
g3
I4009
sg4
I2157527
sg5
I76169
sg6
I00
sg7
I-934484
sg8
S'mark.haedicke@enron.com'
p235
sg10
I983346
sg11
F0.04489897730107259
sg12
I-329825
sg13
I1847
sg14
I0
sg15
I1941
sg16
F3.073838957567658
sg17
I0
sg18
I1150000
sg19
I803094
sg20
I180
sg21
I61
sg22
I524169
sg23
I374125
sg24
I3859065
sg25
F0.03142709943328181
sg26
I608750
sg27
I52382
ssS'BOWEN JR RAYMOND M'
p236
(dp237
g3
I1858
sg4
I0
sg5
I65907
sg6
I01
sg7
I-833
sg8
S'raymond.bowen@enron.com'
p238
sg10
I974293
sg11
F0.07534983853606028
sg12
I0
sg13
I1593
sg14
I0
sg15
I27
sg16
F4.845639462887786
sg17
I0
sg18
I1350000
sg19
I252055
sg20
I140
sg21
I15
sg22
I252055
sg23
I278601
sg24
I2669589
sg25
F0.5555555555555556
sg26
I0
sg27
I1621
ssS'GILLIS JOHN'
p239
(dp240
g3
I0
sg4
I0
sg5
I0
sg6
I00
sg7
I0
sg8
g30
sg10
I0
sg11
F0.0
sg12
I0
sg13
I0
sg14
I0
sg15
I0
sg16
F0.0
sg17
I0
sg18
I0
sg19
I85641
sg20
I0
sg21
I0
sg22
I75838
sg23
I0
sg24
I0
sg25
F0.0
sg26
I9803
sg27
I0
ssS'FITZGERALD JAY L'
p241
(dp242
g3
I936
sg4
I0
sg5
I23870
sg6
I00
sg7
I0
sg8
S'jay.fitzgerald@enron.com'
p243
sg10
I556416
sg11
F0.0010683760683760685
sg12
I0
sg13
I723
sg14
I0
sg15
I16
sg16
F1.7574074724965731
sg17
I0
sg18
I350000
sg19
I1621236
sg20
I1
sg21
I8
sg22
I956775
sg23
I199157
sg24
I1414857
sg25
F0.5
sg26
I664461
sg27
I285414
ssS'MORAN MICHAEL P'
p244
(dp245
g3
I672
sg4
I0
sg5
I0
sg6
I00
sg7
I0
sg8
S'michael.moran@enron.com'
p246
sg10
I0
sg11
F0.0
sg12
I0
sg13
I127
sg14
I0
sg15
I19
sg16
F0.0
sg17
I0
sg18
I0
sg19
I221141
sg20
I0
sg21
I0
sg22
I161602
sg23
I0
sg24
I0
sg25
F0.0
sg26
I59539
sg27
I0
ssS'REDMOND BRIAN L'
p247
(dp248
g3
I1671
sg4
I0
sg5
I14689
sg6
I00
sg7
I0
sg8
S'brian.redmond@enron.com'
p249
sg10
I0
sg11
F0.12208258527827648
sg12
I0
sg13
I1063
sg14
I0
sg15
I221
sg16
F0.0
sg17
I0
sg18
I0
sg19
I7890324
sg20
I204
sg21
I49
sg22
I381285
sg23
I96840
sg24
I111529
sg25
F0.22171945701357465
sg26
I7509039
sg27
I0
ssS'BAZELIDES PHILIP J'
p250
(dp251
g3
I0
sg4
I684694
sg5
I0
sg6
I00
sg7
I0
sg8
g30
sg10
I93750
sg11
F0.0
sg12
I0
sg13
I0
sg14
I0
sg15
I0
sg16
F0.0
sg17
I0
sg18
I0
sg19
I1599641
sg20
I0
sg21
I0
sg22
I0
sg23
I80818
sg24
I860136
sg25
F0.0
sg26
I1599641
sg27
I874
ssS'BELDEN TIMOTHY N'
p252
(dp253
g3
I7991
sg4
I2144013
sg5
I17355
sg6
I01
sg7
I-2334434
sg8
S'tim.belden@enron.com'
p254
sg10
I0
sg11
F0.028532098610937303
sg12
I0
sg13
I5521
sg14
I0
sg15
I484
sg16
F24.532820246823583
sg17
I0
sg18
I5249999
sg19
I1110705
sg20
I228
sg21
I108
sg22
I157569
sg23
I213999
sg24
I5501630
sg25
F0.2231404958677686
sg26
I953136
sg27
I210698
ssS'DURAN WILLIAM D'
p255
(dp256
g3
I904
sg4
I0
sg5
I25785
sg6
I00
sg7
I0
sg8
S'w.duran@enron.com'
p257
sg10
I1105218
sg11
F0.1172566371681416
sg12
I0
sg13
I599
sg14
I0
sg15
I12
sg16
F3.559698517266911
sg17
I0
sg18
I750000
sg19
I1640910
sg20
I106
sg21
I3
sg22
I189041
sg23
I210692
sg24
I2093263
sg25
F0.25
sg26
I1451869
sg27
I1568
ssS'THORN TERENCE H'
p258
(dp259
g3
I266
sg4
I16586
sg5
I46145
sg6
I00
sg7
I0
sg8
S'terence.thorn@enron.com'
p260
sg10
I200000
sg11
F0.0
sg12
I0
sg13
I73
sg14
I0
sg15
I41
sg16
F0.0
sg17
I0
sg18
I0
sg19
I4817796
sg20
I0
sg21
I0
sg22
I365320
sg23
I222093
sg24
I911453
sg25
F0.0
sg26
I4452476
sg27
I426629
ssS'FASTOW ANDREW S'
p261
(dp262
g3
I0
sg4
I0
sg5
I55921
sg6
I01
sg7
I-1386055
sg8
S'andrew.fastow@enron.com'
p263
sg10
I1736055
sg11
F0.0
sg12
I0
sg13
I0
sg14
I0
sg15
I0
sg16
F2.949865894558178
sg17
I0
sg18
I1300000
sg19
I1794412
sg20
I0
sg21
I0
sg22
I1794412
sg23
I440698
sg24
I2424083
sg25
F0.0
sg26
I0
sg27
I277464
ssS'FOY JOE'
p264
(dp265
g3
I57
sg4
I181755
sg5
I0
sg6
I00
sg7
I0
sg8
S'tracy.foy@enron.com'
p266
sg10
I0
sg11
F0.0
sg12
I0
sg13
I2
sg14
I0
sg15
I13
sg16
F0.0
sg17
I0
sg18
I0
sg19
I343434
sg20
I0
sg21
I0
sg22
I0
sg23
I0
sg24
I181755
sg25
F0.0
sg26
I343434
sg27
I0
ssS'CALGER CHRISTOPHER F'
p267
(dp268
g3
I2598
sg4
I0
sg5
I35818
sg6
I01
sg7
I-262500
sg8
S'christopher.calger@enron.com'
p269
sg10
I375304
sg11
F0.07659738260200154
sg12
I0
sg13
I2188
sg14
I0
sg15
I144
sg16
F5.204234998272194
sg17
I0
sg18
I1250000
sg19
I126027
sg20
I199
sg21
I25
sg22
I126027
sg23
I240189
sg24
I1639297
sg25
F0.1736111111111111
sg26
I0
sg27
I486
ssS'RICE KENNETH D'
p270
(dp271
g3
I905
sg4
I0
sg5
I46950
sg6
I01
sg7
I-3504386
sg8
S'ken.rice@enron.com'
p272
sg10
I1617011
sg11
F0.04640883977900553
sg12
I0
sg13
I864
sg14
I0
sg15
I18
sg16
F4.160366682832663
sg17
I0
sg18
I1750000
sg19
I22542539
sg20
I42
sg21
I4
sg22
I2748364
sg23
I420636
sg24
I505050
sg25
F0.2222222222222222
sg26
I19794175
sg27
I174839
ssS'KAMINSKI WINCENTY J'
p273
(dp274
g3
I4607
sg4
I0
sg5
I83585
sg6
I00
sg7
I0
sg8
S'vince.kaminski@enron.com'
p275
sg10
I323466
sg11
F0.008899500759713479
sg12
I0
sg13
I583
sg14
I0
sg15
I14368
sg16
F1.4540114357999425
sg17
I0
sg18
I400000
sg19
I976037
sg20
I41
sg21
I171
sg22
I126027
sg23
I275101
sg24
I1086821
sg25
F0.011901447661469933
sg26
I850010
sg27
I4669
ssS'LOCKHART EUGENE E'
p276
(dp277
g3
I0
sg4
I0
sg5
I0
sg6
I00
sg7
I0
sg8
g30
sg10
I0
sg11
F0.0
sg12
I0
sg13
I0
sg14
I0
sg15
I0
sg16
F0.0
sg17
I0
sg18
I0
sg19
I0
sg20
I0
sg21
I0
sg22
I0
sg23
I0
sg24
I0
sg25
F0.0
sg26
I0
sg27
I0
ssS'COX DAVID'
p278
(dp279
g3
I102
sg4
I0
sg5
I27861
sg6
I00
sg7
I-41250
sg8
S'chip.cox@enron.com'
p280
sg10
I0
sg11
F0.0
sg12
I0
sg13
I71
sg14
I0
sg15
I33
sg16
F2.5454360331924857
sg17
I0
sg18
I800000
sg19
I495633
sg20
I0
sg21
I4
sg22
I378082
sg23
I314288
sg24
I1101393
sg25
F0.12121212121212122
sg26
I117551
sg27
I494
ssS'OVERDYKE JR JERE C'
p281
(dp282
g3
I0
sg4
I0
sg5
I18834
sg6
I00
sg7
I0
sg8
S'jere.overdyke@enron.com'
p283
sg10
I135836
sg11
F0.0
sg12
I0
sg13
I0
sg14
I0
sg15
I0
sg16
F0.0
sg17
I0
sg18
I0
sg19
I7307594
sg20
I0
sg21
I0
sg22
I2041016
sg23
I94941
sg24
I249787
sg25
F0.0
sg26
I5266578
sg27
I176
ssS'PEREIRA PAULO V. FERRAZ'
p284
(dp285
g3
I0
sg4
I0
sg5
I27942
sg6
I00
sg7
I-101250
sg8
g30
sg10
I0
sg11
F0.0
sg12
I0
sg13
I0
sg14
I0
sg15
I0
sg16
F0.0
sg17
I101250
sg18
I0
sg19
I0
sg20
I0
sg21
I0
sg22
I0
sg23
I0
sg24
I27942
sg25
F0.0
sg26
I0
sg27
I0
ssS'STABLER FRANK'
p286
(dp287
g3
I0
sg4
I0
sg5
I16514
sg6
I00
sg7
I0
sg8
S'frank.stabler@enron.com'
p288
sg10
I0
sg11
F0.0
sg12
I0
sg13
I0
sg14
I0
sg15
I0
sg16
F2.0876652387036434
sg17
I0
sg18
I500000
sg19
I511734
sg20
I0
sg21
I0
sg22
I511734
sg23
I239502
sg24
I1112087
sg25
F0.0
sg26
I0
sg27
I356071
ssS'SKILLING JEFFREY K'
p289
(dp290
g3
I3627
sg4
I0
sg5
I29336
sg6
I01
sg7
I0
sg8
S'jeff.skilling@enron.com'
p291
sg10
I1920000
sg11
F0.0242624758753791
sg12
I0
sg13
I2042
sg14
I0
sg15
I108
sg16
F5.03933380007163
sg17
I0
sg18
I5600000
sg19
I26093672
sg20
I88
sg21
I30
sg22
I6843672
sg23
I1111258
sg24
I8682716
sg25
F0.2777777777777778
sg26
I19250000
sg27
I22122
ssS'BLAKE JR. NORMAN P'
p292
(dp293
g3
I0
sg4
I0
sg5
I1279
sg6
I00
sg7
I-113784
sg8
g30
sg10
I0
sg11
F0.0
sg12
I0
sg13
I0
sg14
I0
sg15
I0
sg16
F0.0
sg17
I113784
sg18
I0
sg19
I0
sg20
I0
sg21
I0
sg22
I0
sg23
I0
sg24
I1279
sg25
F0.0
sg26
I0
sg27
I0
ssS'SHERRICK JEFFREY B'
p294
(dp295
g3
I613
sg4
I0
sg5
I0
sg6
I00
sg7
I0
sg8
S'jeffrey.sherrick@enron.com'
p296
sg10
I0
sg11
F0.0636215334420881
sg12
I0
sg13
I583
sg14
I0
sg15
I25
sg16
F0.0
sg17
I0
sg18
I0
sg19
I1832468
sg20
I39
sg21
I18
sg22
I405999
sg23
I0
sg24
I0
sg25
F0.72
sg26
I1426469
sg27
I0
ssS'PRENTICE JAMES'
p297
(dp298
g3
I0
sg4
I564348
sg5
I0
sg6
I00
sg7
I0
sg8
S'james.prentice@enron.com'
p299
sg10
I0
sg11
F0.0
sg12
I0
sg13
I0
sg14
I0
sg15
I0
sg16
F0.0
sg17
I0
sg18
I0
sg19
I1095040
sg20
I0
sg21
I0
sg22
I208809
sg23
I0
sg24
I564348
sg25
F0.0
sg26
I886231
sg27
I0
ssS'GRAY RODNEY'
p300
(dp301
g3
I0
sg4
I93585
sg5
I0
sg6
I00
sg7
I0
sg8
g30
sg10
I365625
sg11
F0.0
sg12
I0
sg13
I0
sg14
I0
sg15
I0
sg16
F0.0
sg17
I0
sg18
I0
sg19
I0
sg20
I0
sg21
I0
sg22
I0
sg23
I6615
sg24
I1146658
sg25
F0.0
sg26
I0
sg27
I680833
ssS'PICKERING MARK R'
p302
(dp303
g3
I898
sg4
I0
sg5
I31653
sg6
I00
sg7
I0
sg8
S'mark.pickering@enron.com'
p304
sg10
I0
sg11
F0.0077951002227171495
sg12
I0
sg13
I728
sg14
I400000
sg15
I67
sg16
F0.45798939601885086
sg17
I0
sg18
I300000
sg19
I28798
sg20
I7
sg21
I0
sg22
I0
sg23
I655037
sg24
I1386690
sg25
F0.0
sg26
I28798
sg27
I0
ssS'NOLES JAMES L'
p305
(dp306
g3
I0
sg4
I774401
sg5
I0
sg6
I00
sg7
I0
sg8
g30
sg10
I0
sg11
F0.0
sg12
I-94556
sg13
I0
sg14
I0
sg15
I0
sg16
F0.0
sg17
I0
sg18
I0
sg19
I368705
sg20
I0
sg21
I0
sg22
I463261
sg23
I0
sg24
I774401
sg25
F0.0
sg26
I0
sg27
I0
ssS'KEAN STEVEN J'
p307
(dp308
g3
I12754
sg4
I0
sg5
I41953
sg6
I00
sg7
I0
sg8
S'steven.kean@enron.com'
p309
sg10
I300000
sg11
F0.010976948408342482
sg12
I0
sg13
I3639
sg14
I0
sg15
I6759
sg16
F2.473178380463869
sg17
I0
sg18
I1000000
sg19
I6153642
sg20
I140
sg21
I387
sg22
I4131594
sg23
I404338
sg24
I1747522
sg25
F0.05725699067909454
sg26
I2022048
sg27
I1231
ssS'FOWLER PEGGY'
p310
(dp311
g3
I517
sg4
I0
sg5
I0
sg6
I00
sg7
I0
sg8
S'kulvinder.fowler@enron.com'
p312
sg10
I0
sg11
F0.0
sg12
I0
sg13
I10
sg14
I0
sg15
I36
sg16
F0.0
sg17
I0
sg18
I0
sg19
I1884748
sg20
I0
sg21
I0
sg22
I560170
sg23
I0
sg24
I0
sg25
F0.0
sg26
I1324578
sg27
I0
ssS'WASAFF GEORGE'
p313
(dp314
g3
I400
sg4
I831299
sg5
I0
sg6
I00
sg7
I-583325
sg8
S'george.wasaff@enron.com'
p315
sg10
I200000
sg11
F0.055
sg12
I0
sg13
I337
sg14
I0
sg15
I30
sg16
F1.2500192310650933
sg17
I0
sg18
I325000
sg19
I2056427
sg20
I22
sg21
I7
sg22
I388167
sg23
I259996
sg24
I1034395
sg25
F0.23333333333333334
sg26
I1668260
sg27
I1425
ssS'WHITE JR THOMAS E'
p316
(dp317
g3
I0
sg4
I0
sg5
I81353
sg6
I00
sg7
I0
sg8
S'thomas.white@enron.com'
p318
sg10
I0
sg11
F0.0
sg12
I0
sg13
I0
sg14
I0
sg15
I0
sg16
F1.417130908254945
sg17
I0
sg18
I450000
sg19
I15144123
sg20
I0
sg21
I0
sg22
I13847074
sg23
I317543
sg24
I1934359
sg25
F0.0
sg26
I1297049
sg27
I1085463
ssS'CHRISTODOULOU DIOMEDES'
p319
(dp320
g3
I0
sg4
I0
sg5
I0
sg6
I00
sg7
I0
sg8
S'diomedes.christodoulou@enron.com'
p321
sg10
I0
sg11
F0.0
sg12
I0
sg13
I0
sg14
I0
sg15
I0
sg16
F0.0
sg17
I0
sg18
I0
sg19
I6077885
sg20
I0
sg21
I0
sg22
I950730
sg23
I0
sg24
I0
sg25
F0.0
sg26
I5127155
sg27
I0
ssS'ALLEN PHILLIP K'
p322
(dp323
g3
I2902
sg4
I2869717
sg5
I13868
sg6
I00
sg7
I-3081055
sg8
S'phillip.allen@enron.com'
p324
sg10
I304805
sg11
F0.016195727084769126
sg12
I-126027
sg13
I1407
sg14
I0
sg15
I2195
sg16
F20.672922185635414
sg17
I0
sg18
I4175000
sg19
I1729541
sg20
I47
sg21
I65
sg22
I126027
sg23
I201955
sg24
I4484442
sg25
F0.029612756264236904
sg26
I1729541
sg27
I152
ssS'SHARP VICTORIA T'
p325
(dp326
g3
I3136
sg4
I187469
sg5
I116337
sg6
I00
sg7
I0
sg8
S'vicki.sharp@enron.com'
p327
sg10
I422158
sg11
F0.007653061224489796
sg12
I0
sg13
I2477
sg14
I0
sg15
I136
sg16
F2.417931379107461
sg17
I0
sg18
I600000
sg19
I494136
sg20
I24
sg21
I6
sg22
I213063
sg23
I248146
sg24
I1576511
sg25
F0.04411764705882353
sg26
I281073
sg27
I2401
ssS'JAEDICKE ROBERT'
p328
(dp329
g3
I0
sg4
I0
sg5
I0
sg6
I00
sg7
I-25000
sg8
g30
sg10
I0
sg11
F0.0
sg12
I-44093
sg13
I0
sg14
I0
sg15
I0
sg16
F0.0
sg17
I108750
sg18
I0
sg19
I431750
sg20
I0
sg21
I0
sg22
I44093
sg23
I0
sg24
I83750
sg25
F0.0
sg26
I431750
sg27
I0
ssS'WINOKUR JR. HERBERT S'
p330
(dp331
g3
I0
sg4
I0
sg5
I1413
sg6
I00
sg7
I-25000
sg8
g30
sg10
I0
sg11
F0.0
sg12
I0
sg13
I0
sg14
I0
sg15
I0
sg16
F0.0
sg17
I108579
sg18
I0
sg19
I0
sg20
I0
sg21
I0
sg22
I0
sg23
I0
sg24
I84992
sg25
F0.0
sg26
I0
sg27
I0
ssS'BROWN MICHAEL'
p332
(dp333
g3
I1486
sg4
I0
sg5
I49288
sg6
I00
sg7
I0
sg8
S'michael.brown@enron.com'
p334
sg10
I0
sg11
F0.008748317631224764
sg12
I0
sg13
I761
sg14
I0
sg15
I41
sg16
F0.0
sg17
I0
sg18
I0
sg19
I0
sg20
I13
sg21
I1
sg22
I0
sg23
I0
sg24
I49288
sg25
F0.024390243902439025
sg26
I0
sg27
I0
ssS'BADUM JAMES P'
p335
(dp336
g3
I0
sg4
I178980
sg5
I3486
sg6
I00
sg7
I0
sg8
g30
sg10
I0
sg11
F0.0
sg12
I0
sg13
I0
sg14
I0
sg15
I0
sg16
F0.0
sg17
I0
sg18
I0
sg19
I257817
sg20
I0
sg21
I0
sg22
I0
sg23
I0
sg24
I182466
sg25
F0.0
sg26
I257817
sg27
I0
ssS'HUGHES JAMES A'
p337
(dp338
g3
I719
sg4
I0
sg5
I0
sg6
I00
sg7
I0
sg8
S'james.hughes@enron.com'
p339
sg10
I0
sg11
F0.048678720445062586
sg12
I0
sg13
I589
sg14
I0
sg15
I34
sg16
F0.0
sg17
I0
sg18
I0
sg19
I1118394
sg20
I35
sg21
I5
sg22
I363428
sg23
I0
sg24
I0
sg25
F0.14705882352941177
sg26
I754966
sg27
I0
ssS'REYNOLDS LAWRENCE'
p340
(dp341
g3
I0
sg4
I51365
sg5
I8409
sg6
I00
sg7
I-200000
sg8
g30
sg10
I156250
sg11
F0.0
sg12
I-140264
sg13
I0
sg14
I0
sg15
I0
sg16
F1.3089176559902616
sg17
I0
sg18
I100000
sg19
I4221891
sg20
I0
sg21
I0
sg22
I201483
sg23
I76399
sg24
I394475
sg25
F0.0
sg26
I4160672
sg27
I202052
ssS'DIMICHELE RICHARD G'
p342
(dp343
g3
I0
sg4
I0
sg5
I35812
sg6
I00
sg7
I0
sg8
S'richard.dimichele@enron.com'
p344
sg10
I694862
sg11
F0.0
sg12
I0
sg13
I0
sg14
I0
sg15
I0
sg16
F3.8053487982708494
sg17
I0
sg18
I1000000
sg19
I8317782
sg20
I0
sg21
I0
sg22
I126027
sg23
I262788
sg24
I2368151
sg25
F0.0
sg26
I8191755
sg27
I374689
ssS'BHATNAGAR SANJAY'
p345
(dp346
g3
I523
sg4
I0
sg5
I0
sg6
I00
sg7
I0
sg8
S'sanjay.bhatnagar@enron.com'
p347
sg10
I0
sg11
F0.0
sg12
I15456290
sg13
I463
sg14
I0
sg15
I29
sg16
F0.0
sg17
I137864
sg18
I0
sS'total_stock_value'
p348
I0
sg20
I0
sg21
I1
sg22
I-2604490
sg23
I0
sg24
I15456290
sg25
F0.034482758620689655
sg26
I2604490
sg27
I137864
ssS'CARTER REBECCA C'
p349
(dp350
g3
I312
sg4
I0
sg5
I0
sg6
I00
sg7
I-159792
sg8
S'rebecca.carter@enron.com'
p351
sg10
I75000
sg11
F0.09294871794871795
sg12
I-307301
sg13
I196
sg14
I0
sg15
I15
sg16
F1.14587351848103
sg17
I0
sg18
I300000
sg19
I0
sg20
I29
sg21
I7
sg22
I307301
sg23
I261809
sg24
I477557
sg25
F0.4666666666666667
sg26
I0
sg27
I540
ssS'BUCHANAN HAROLD G'
p352
(dp353
g3
I1088
sg4
I0
sg5
I600
sg6
I00
sg7
I0
sg8
S'john.buchanan@enron.com'
p354
sg10
I304805
sg11
F0.0
sg12
I0
sg13
I23
sg14
I0
sg15
I125
sg16
F2.015990839337626
sg17
I0
sg18
I500000
sg19
I1014505
sg20
I0
sg21
I0
sg22
I189041
sg23
I248017
sg24
I1054637
sg25
F0.0
sg26
I825464
sg27
I1215
ssS'YEAP SOON'
p355
(dp356
g3
I0
sg4
I0
sg5
I55097
sg6
I00
sg7
I0
sg8
g30
sg10
I0
sg11
F0.0
sg12
I0
sg13
I0
sg14
I0
sg15
I0
sg16
F0.0
sg17
I0
sg18
I0
sg19
I192758
sg20
I0
sg21
I0
sg22
I0
sg23
I0
sg24
I55097
sg25
F0.0
sg26
I192758
sg27
I0
ssS'MURRAY JULIA H'
p357
(dp358
g3
I2192
sg4
I0
sg5
I57580
sg6
I00
sg7
I0
sg8
S'julia.murray@enron.com'
p359
sg10
I125000
sg11
F0.005018248175182482
sg12
I0
sg13
I395
sg14
I0
sg15
I45
sg16
F1.744561330053558
sg17
I0
sg18
I400000
sg19
I597461
sg20
I11
sg21
I2
sg22
I196983
sg23
I229284
sg24
I812194
sg25
F0.044444444444444446
sg26
I400478
sg27
I330
ssS'GARLAND C KEVIN'
p360
(dp361
g3
I209
sg4
I0
sg5
I48405
sg6
I00
sg7
I0
sg8
S'kevin.garland@enron.com'
p362
sg10
I375304
sg11
F0.04784688995215311
sg12
I0
sg13
I178
sg14
I0
sg15
I44
sg16
F3.6646460814155017
sg17
I0
sg18
I850000
sg19
I896153
sg20
I10
sg21
I27
sg22
I259907
sg23
I231946
sg24
I1566469
sg25
F0.6136363636363636
sg26
I636246
sg27
I60814
ssS'DODSON KEITH'
p363
(dp364
g3
I176
sg4
I0
sg5
I28164
sg6
I00
sg7
I0
sg8
S'keith.dodson@enron.com'
p365
sg10
I0
sg11
F0.056818181818181816
sg12
I0
sg13
I114
sg14
I0
sg15
I14
sg16
F0.3167377818400655
sg17
I0
sg18
I70000
sg19
I0
sg20
I10
sg21
I3
sg22
I0
sg23
I221003
sg24
I319941
sg25
F0.21428571428571427
sg26
I0
sg27
I774
ssS'YEAGER F SCOTT'
p366
(dp367
g3
I0
sg4
I0
sg5
I53947
sg6
I01
sg7
I0
sg8
S'scott.yeager@enron.com'
p368
sg10
I0
sg11
F0.0
sg12
I0
sg13
I0
sg14
I0
sg15
I0
sg16
F0.0
sg17
I0
sg18
I0
sg19
I11884758
sg20
I0
sg21
I0
sg22
I3576206
sg23
I158403
sg24
I360300
sg25
F0.0
sg26
I8308552
sg27
I147950
ssS'HIRKO JOSEPH'
p369
(dp370
g3
I0
sg4
I10259
sg5
I77978
sg6
I01
sg7
I0
sg8
S'joe.hirko@enron.com'
p371
sg10
I0
sg11
F0.0
sg12
I0
sg13
I0
sg14
I0
sg15
I0
sg16
F0.0
sg17
I0
sg18
I0
sg19
I30766064
sg20
I0
sg21
I0
sg22
I0
sg23
I0
sg24
I91093
sg25
F0.0
sg26
I30766064
sg27
I2856
ssS'DIETRICH JANET R'
p372
(dp373
g3
I2572
sg4
I0
sg5
I3475
sg6
I00
sg7
I0
sg8
S'janet.dietrich@enron.com'
p374
sg10
I556416
sg11
F0.11858475894245724
sg12
I0
sg13
I1902
sg14
I0
sg15
I63
sg16
F2.3990403838464616
sg17
I0
sg18
I600000
sg19
I1865087
sg20
I305
sg21
I14
sg22
I315068
sg23
I250100
sg24
I1410464
sg25
F0.2222222222222222
sg26
I1550019
sg27
I473
ssS'DERRICK JR. JAMES V'
p375
(dp376
g3
I2181
sg4
I0
sg5
I51124
sg6
I00
sg7
I-1284000
sg8
S'james.derrick@enron.com'
p377
sg10
I484000
sg11
F0.029344337459880788
sg12
I-1787380
sg13
I1401
sg14
I0
sg15
I909
sg16
F1.6247778624016247
sg17
I0
sg18
I800000
sg19
I8831913
sg20
I64
sg21
I20
sg22
I1787380
sg23
I492375
sg24
I550981
sg25
F0.022002200220022004
sg26
I8831913
sg27
I7482
ssS'FREVERT MARK A'
p378
(dp379
g3
I3275
sg4
I6426990
sg5
I86987
sg6
I00
sg7
I-3367011
sg8
S'mark.frevert@enron.com'
p380
sg10
I1617011
sg11
F0.07389312977099237
sg12
I0
sg13
I2979
sg14
I2000000
sg15
I21
sg16
F1.885134956811558
sg17
I0
sg18
I2000000
sg19
I14622185
sg20
I242
sg21
I6
sg22
I4188667
sg23
I1060932
sg24
I17252530
sg25
F0.2857142857142857
sg26
I10433518
sg27
I7427621
ssS'PAI LOU L'
p381
(dp382
g3
I0
sg4
I0
sg5
I32047
sg6
I00
sg7
I0
sg8
S'lou.pai@enron.com'
p383
sg10
I0
sg11
F0.0
sg12
I0
sg13
I0
sg14
I0
sg15
I0
sg16
F3.8185574253758414
sg17
I0
sg18
I1000000
sg19
I23817930
sg20
I0
sg21
I0
sg22
I8453763
sg23
I261879
sg24
I3123383
sg25
F0.0
sg26
I15364167
sg27
I1829457
ssS'BAY FRANKLIN R'
p384
(dp385
g3
I0
sg4
I260455
sg5
I129142
sg6
I00
sg7
I-201641
sg8
S'frank.bay@enron.com'
p386
sg10
I0
sg11
F0.0
sg12
I-82782
sg13
I0
sg14
I0
sg15
I0
sg16
F1.6689545251615756
sg17
I0
sg18
I400000
sg19
I63014
sg20
I0
sg21
I0
sg22
I145796
sg23
I239671
sg24
I827696
sg25
F0.0
sg26
I0
sg27
I69
ssS'HAYSLETT RODERICK J'
p387
(dp388
g3
I2649
sg4
I0
sg5
I0
sg6
I00
sg7
I0
sg8
S'rod.hayslett@enron.com'
p389
sg10
I0
sg11
F0.01321253303133258
sg12
I0
sg13
I571
sg14
I0
sg15
I1061
sg16
F0.0
sg17
I0
sg18
I0
sg19
I346663
sg20
I35
sg21
I38
sg22
I346663
sg23
I0
sg24
I0
sg25
F0.03581526861451461
sg26
I0
sg27
I0
ssS'FUGH JOHN L'
p390
(dp391
g3
I0
sg4
I50591
sg5
I0
sg6
I00
sg7
I0
sg8
g30
sg10
I0
sg11
F0.0
sg12
I0
sg13
I0
sg14
I0
sg15
I0
sg16
F0.0
sg17
I0
sg18
I0
sg19
I176378
sg20
I0
sg21
I0
sg22
I0
sg23
I0
sg24
I50591
sg25
F0.0
sg26
I176378
sg27
I0
ssS'FALLON JAMES B'
p392
(dp393
g3
I1755
sg4
I0
sg5
I95924
sg6
I00
sg7
I0
sg8
S'jim.fallon@enron.com'
p394
sg10
I374347
sg11
F0.023931623931623933
sg12
I0
sg13
I1604
sg14
I0
sg15
I75
sg16
F8.207808580771403
sg17
I0
sg18
I2500000
sg19
I2332399
sg20
I42
sg21
I37
sg22
I1392142
sg23
I304588
sg24
I3676340
sg25
F0.49333333333333335
sg26
I940257
sg27
I401481
ssS'KOENIG MARK E'
p395
(dp396
g3
I2374
sg4
I0
sg5
I127017
sg6
I01
sg7
I0
sg8
S'mark.koenig@enron.com'
p397
sg10
I300000
sg11
F0.02232518955349621
sg12
I0
sg13
I2271
sg14
I0
sg15
I61
sg16
F2.2584579249288588
sg17
I0
sg18
I700000
sg19
I1920055
sg20
I53
sg21
I15
sg22
I1248318
sg23
I309946
sg24
I1587421
sg25
F0.2459016393442623
sg26
I671737
sg27
I150458
ssS'SAVAGE FRANK'
p398
(dp399
g3
I0
sg4
I0
sg5
I0
sg6
I00
sg7
I-121284
sg8
g30
sg10
I0
sg11
F0.0
sg12
I0
sg13
I0
sg14
I0
sg15
I0
sg16
F0.0
sg17
I125034
sg18
I0
sg19
I0
sg20
I0
sg21
I0
sg22
I0
sg23
I0
sg24
I3750
sg25
F0.0
sg26
I0
sg27
I0
ssS'IZZO LAWRENCE L'
p400
(dp401
g3
I496
sg4
I0
sg5
I28093
sg6
I00
sg7
I0
sg8
S'larry.izzo@enron.com'
p402
sg10
I312500
sg11
F0.056451612903225805
sg12
I0
sg13
I437
sg14
I0
sg15
I19
sg16
F0.0
sg17
I0
sg18
I0
sg19
I5819980
sg20
I28
sg21
I5
sg22
I3654808
sg23
I85274
sg24
I1979596
sg25
F0.2631578947368421
sg26
I2165172
sg27
I1553729
ssS'TILNEY ELIZABETH A'
p403
(dp404
g3
I460
sg4
I0
sg5
I0
sg6
I00
sg7
I-575000
sg8
S'elizabeth.tilney@enron.com'
p405
sg10
I275000
sg11
F0.021739130434782608
sg12
I0
sg13
I379
sg14
I0
sg15
I19
sg16
F1.2129151201998885
sg17
I0
sg18
I300000
sg19
I1168042
sg20
I10
sg21
I11
sg22
I576792
sg23
I247338
sg24
I399393
sg25
F0.5789473684210527
sg26
I591250
sg27
I152055
ssS'MARTIN AMANDA K'
p406
(dp407
g3
I1522
sg4
I85430
sg5
I8211
sg6
I00
sg7
I0
sg8
S'a..martin@enron.com'
p408
sg10
I5145434
sg11
F0.005256241787122208
sg12
I0
sg13
I477
sg14
I0
sg15
I230
sg16
F0.0
sg17
I0
sg18
I0
sg19
I2070306
sg20
I8
sg21
I0
sg22
I0
sg23
I349487
sg24
I8407016
sg25
F0.0
sg26
I2070306
sg27
I2818454
ssS'BUY RICHARD B'
p409
(dp410
g3
I3523
sg4
I649584
sg5
I0
sg6
I00
sg7
I-694862
sg8
S'rick.buy@enron.com'
p411
sg10
I769862
sg11
F0.04428044280442804
sg12
I0
sg13
I2333
sg14
I0
sg15
I1053
sg16
F2.722767784211577
sg17
I0
sg18
I900000
sg19
I3444470
sg20
I156
sg21
I71
sg22
I901657
sg23
I330546
sg24
I2355702
sg25
F0.06742640075973409
sg26
I2542813
sg27
I400572
ssS'GRAMM WENDY L'
p412
(dp413
g3
I0
sg4
I0
sg5
I0
sg6
I00
sg7
I0
sg8
g30
sg10
I0
sg11
F0.0
sg12
I0
sg13
I0
sg14
I0
sg15
I0
sg16
F0.0
sg17
I119292
sg18
I0
sg19
I0
sg20
I0
sg21
I0
sg22
I0
sg23
I0
sg24
I119292
sg25
F0.0
sg26
I0
sg27
I0
ssS'CAUSEY RICHARD A'
p414
(dp415
g3
I1892
sg4
I0
sg5
I30674
sg6
I01
sg7
I-235000
sg8
S'richard.causey@enron.com'
p416
sg10
I350000
sg11
F0.0306553911205074
sg12
I0
sg13
I1585
sg14
I0
sg15
I49
sg16
F2.4085416521150607
sg17
I0
sg18
I1000000
sg19
I2502063
sg20
I58
sg21
I12
sg22
I2502063
sg23
I415189
sg24
I1868758
sg25
F0.24489795918367346
sg26
I0
sg27
I307895
ssS'TAYLOR MITCHELL S'
p417
(dp418
g3
I533
sg4
I227449
sg5
I0
sg6
I00
sg7
I0
sg8
S'mitchell.taylor@enron.com'
p419
sg10
I0
sg11
F0.0
sg12
I0
sg13
I300
sg14
I0
sg15
I29
sg16
F2.2623240100447184
sg17
I0
sg18
I600000
sg19
I3745048
sg20
I0
sg21
I0
sg22
I563798
sg23
I265214
sg24
I1092663
sg25
F0.0
sg26
I3181250
sg27
I0
ssS'DONAHUE JR JEFFREY M'
p420
(dp421
g3
I865
sg4
I0
sg5
I96268
sg6
I00
sg7
I-300000
sg8
S'jeff.donahue@enron.com'
p422
sg10
I0
sg11
F0.21734104046242775
sg12
I0
sg13
I772
sg14
I0
sg15
I22
sg16
F2.8714900520816506
sg17
I0
sg18
I800000
sg19
I1080988
sg20
I188
sg21
I11
sg22
I315068
sg23
I278601
sg24
I875760
sg25
F0.5
sg26
I765920
sg27
I891
ssS'GLISAN JR BEN F'
p423
(dp424
g3
I873
sg4
I0
sg5
I125978
sg6
I01
sg7
I0
sg8
S'ben.glisan@enron.com'
p425
sg10
I71023
sg11
F0.05956471935853379
sg12
I0
sg13
I874
sg14
I0
sg15
I16
sg16
F2.1820165469588146
sg17
I0
sg18
I600000
sg19
I778546
sg20
I52
sg21
I6
sg22
I393818
sg23
I274975
sg24
I1272284
sg25
F0.375
sg26
I384728
sg27
I200308
ss.